   1               		.file	"north.c"
   2               	__SREG__ = 0x3f
   3               	__SP_H__ = 0x3e
   4               	__SP_L__ = 0x3d
   5               	__CCP__ = 0x34
   6               	__tmp_reg__ = 0
   7               	__zero_reg__ = 1
  15               	.Ltext0:
  16               		.section	.text.int6_init,"ax",@progbits
  17               	.global	int6_init
  19               	int6_init:
  20               	.LFB12:
  21               	.LSM0:
  22               	/* prologue: function */
  23               	/* frame size = 0 */
  24               	/* stack size = 0 */
  25               	.L__stack_usage = 0
  26               	.LSM1:
  27               	/* #APP */
  28               	 ;  89 "north.c" 1
  29 0000 F894      		cli
  30               	 ;  0 "" 2
  31               	.LSM2:
  32               	/* #NOAPP */
  33 0002 EAE6      		ldi r30,lo8(106)
  34 0004 F0E0      		ldi r31,hi8(106)
  35 0006 8081      		ld r24,Z
  36 0008 8F7C      		andi r24,lo8(-49)
  37 000a 8083      		st Z,r24
  38               	.LSM3:
  39               	/* #APP */
  40               	 ;  92 "north.c" 1
  41 000c 7894      		sei
  42               	 ;  0 "" 2
  43               	/* epilogue start */
  44               	.LSM4:
  45               	/* #NOAPP */
  46 000e 0895      		ret
  47               	.LFE12:
  49               		.section	.text.timer3_init,"ax",@progbits
  50               	.global	timer3_init
  52               	timer3_init:
  53               	.LFB13:
  54               	.LSM5:
  55               	/* prologue: function */
  56               	/* frame size = 0 */
  57               	/* stack size = 0 */
  58               	.L__stack_usage = 0
  59               	.LSM6:
  60               	/* #APP */
  61               	 ;  99 "north.c" 1
  62 0000 F894      		cli
  63               	 ;  0 "" 2
  64               	.LSM7:
  65               	/* #NOAPP */
  66 0002 E1E9      		ldi r30,lo8(145)
  67 0004 F0E0      		ldi r31,hi8(145)
  68 0006 8081      		ld r24,Z
  69 0008 8C60      		ori r24,lo8(12)
  70 000a 8083      		st Z,r24
  71               	.LSM8:
  72 000c 85E3      		ldi r24,lo8(3125)
  73 000e 9CE0      		ldi r25,hi8(3125)
  74 0010 9093 9900 		sts 152+1,r25
  75 0014 8093 9800 		sts 152,r24
  76               	.LSM9:
  77 0018 E1E7      		ldi r30,lo8(113)
  78 001a F0E0      		ldi r31,hi8(113)
  79 001c 8081      		ld r24,Z
  80 001e 8260      		ori r24,lo8(2)
  81 0020 8083      		st Z,r24
  82               	.LSM10:
  83               	/* #APP */
  84               	 ;  103 "north.c" 1
  85 0022 7894      		sei
  86               	 ;  0 "" 2
  87               	/* epilogue start */
  88               	.LSM11:
  89               	/* #NOAPP */
  90 0024 0895      		ret
  91               	.LFE13:
  93               		.data
  94               	.LC0:
  95 0000 2000      		.string	" "
  96               	.LC1:
  97 0002 7774 6620 		.string	"wtf "
  97      00
  98               	.LC2:
  99 0007 2072 3A20 		.string	" r: "
  99      00
 100               	.LC3:
 101 000c 2065 3A20 		.string	" e: "
 101      00
 102               		.section	.text.north_test_south,"ax",@progbits
 103               	.global	north_test_south
 105               	north_test_south:
 106               	.LFB15:
 107               	.LSM12:
 108 0000 CF92      		push r12
 109 0002 DF92      		push r13
 110 0004 EF92      		push r14
 111 0006 FF92      		push r15
 112 0008 0F93      		push r16
 113 000a 1F93      		push r17
 114 000c DF93      		push r29
 115 000e CF93      		push r28
 116 0010 00D0      		rcall .
 117 0012 00D0      		rcall .
 118 0014 0F92      		push __tmp_reg__
 119 0016 CDB7      		in r28,__SP_L__
 120 0018 DEB7      		in r29,__SP_H__
 121               	/* prologue: function */
 122               	/* frame size = 5 */
 123               	/* stack size = 13 */
 124               	.L__stack_usage = 13
 125               	.LSM13:
 126 001a 1982      		std Y+1,__zero_reg__
 127               	.LVL0:
 128               	.LSM14:
 129 001c DD24      		clr r13
 130               	.LSM15:
 131 001e 8E01      		movw r16,r28
 132 0020 0E5F      		subi r16,lo8(-(2))
 133 0022 1F4F      		sbci r17,hi8(-(2))
 134               	.LSM16:
 135 0024 7E01      		movw r14,r28
 136 0026 0894      		sec
 137 0028 E11C      		adc r14,__zero_reg__
 138 002a F11C      		adc r15,__zero_reg__
 139               	.LVL1:
 140               	.L10:
 141               	.LSM17:
 142 002c 8D2D      		mov r24,r13
 143 002e 0E94 0000 		call south_max6959
 144 0032 62E0      		ldi r22,lo8(2)
 145 0034 4FE3      		ldi r20,lo8(63)
 146 0036 0E94 0000 		call max6959_write
 147 003a C82E      		mov r12,r24
 148               	.LVL2:
 149               	.LSM18:
 150 003c 80E0      		ldi r24,lo8(0)
 151               	.LVL3:
 152 003e 6D2D      		mov r22,r13
 153 0040 0E94 0000 		call LCD_GoTo
 154               	.LSM19:
 155 0044 CC20      		tst r12
 156 0046 01F4      		brne .L4
 157               	.LSM20:
 158 0048 8D2D      		mov r24,r13
 159 004a 0E94 0000 		call south_max6959
 160 004e 2BB1      		in r18,43-32
 161 0050 8067      		ori r24,lo8(112)
 162 0052 90E0      		ldi r25,lo8(0)
 163 0054 30E0      		ldi r19,lo8(0)
 164 0056 2071      		andi r18,lo8(16)
 165 0058 3070      		andi r19,hi8(16)
 166 005a 44E0      		ldi r20,4
 167 005c 3595      	1:	asr r19
 168 005e 2795      		ror r18
 169 0060 4A95      		dec r20
 170 0062 01F4      		brne 1b
 171 0064 822B      		or r24,r18
 172 0066 932B      		or r25,r19
 173 0068 B801      		movw r22,r16
 174 006a 40E1      		ldi r20,lo8(16)
 175 006c 50E0      		ldi r21,hi8(16)
 176 006e 0E94 0000 		call utoa
 177 0072 0E94 0000 		call LCD_WriteText
 178               	.LSM21:
 179 0076 80E0      		ldi r24,lo8(.LC0)
 180 0078 90E0      		ldi r25,hi8(.LC0)
 181 007a 00C0      		rjmp .L12
 182               	.L4:
 183               	.LSM22:
 184 007c 80E0      		ldi r24,lo8(.LC1)
 185 007e 90E0      		ldi r25,hi8(.LC1)
 186               	.L12:
 187 0080 0E94 0000 		call LCD_WriteText
 188               	.LSM23:
 189 0084 8D2D      		mov r24,r13
 190 0086 0E94 0000 		call south_max6959
 191 008a 62E0      		ldi r22,lo8(2)
 192 008c A701      		movw r20,r14
 193 008e 0E94 0000 		call max6959_read
 194 0092 C82E      		mov r12,r24
 195               	.LVL4:
 196               	.LSM24:
 197 0094 8823      		tst r24
 198 0096 01F4      		brne .L6
 199               	.LSM25:
 200 0098 80E0      		ldi r24,lo8(.LC2)
 201 009a 90E0      		ldi r25,hi8(.LC2)
 202               	.LVL5:
 203 009c 0E94 0000 		call LCD_WriteText
 204               	.LSM26:
 205 00a0 8981      		ldd r24,Y+1
 206 00a2 00C0      		rjmp .L13
 207               	.L6:
 208               	.LSM27:
 209 00a4 80E0      		ldi r24,lo8(.LC3)
 210 00a6 90E0      		ldi r25,hi8(.LC3)
 211 00a8 0E94 0000 		call LCD_WriteText
 212               	.LSM28:
 213 00ac 8C2D      		mov r24,r12
 214               	.L13:
 215 00ae 90E0      		ldi r25,lo8(0)
 216 00b0 B801      		movw r22,r16
 217 00b2 40E1      		ldi r20,lo8(16)
 218 00b4 50E0      		ldi r21,hi8(16)
 219 00b6 0E94 0000 		call utoa
 220 00ba 0E94 0000 		call LCD_WriteText
 221               	.LSM29:
 222 00be 8D2D      		mov r24,r13
 223 00c0 0E94 0000 		call south_max6959
 224 00c4 63E0      		ldi r22,lo8(3)
 225 00c6 A701      		movw r20,r14
 226 00c8 0E94 0000 		call max6959_read
 227 00cc C82E      		mov r12,r24
 228               	.LVL6:
 229               	.LSM30:
 230 00ce 8823      		tst r24
 231 00d0 01F4      		brne .L8
 232               	.LSM31:
 233 00d2 80E0      		ldi r24,lo8(.LC2)
 234 00d4 90E0      		ldi r25,hi8(.LC2)
 235               	.LVL7:
 236 00d6 0E94 0000 		call LCD_WriteText
 237               	.LSM32:
 238 00da 8981      		ldd r24,Y+1
 239 00dc 00C0      		rjmp .L14
 240               	.L8:
 241               	.LSM33:
 242 00de 80E0      		ldi r24,lo8(.LC3)
 243 00e0 90E0      		ldi r25,hi8(.LC3)
 244 00e2 0E94 0000 		call LCD_WriteText
 245               	.LSM34:
 246 00e6 8C2D      		mov r24,r12
 247               	.L14:
 248 00e8 90E0      		ldi r25,lo8(0)
 249 00ea B801      		movw r22,r16
 250 00ec 40E1      		ldi r20,lo8(16)
 251 00ee 50E0      		ldi r21,hi8(16)
 252 00f0 0E94 0000 		call utoa
 253 00f4 0E94 0000 		call LCD_WriteText
 254               	.LSM35:
 255 00f8 D394      		inc r13
 256               	.LVL8:
 257 00fa 8D2D      		mov r24,r13
 258 00fc 8430      		cpi r24,lo8(4)
 259 00fe 01F0      		breq .+2
 260 0100 00C0      		rjmp .L10
 261               	.LSM36:
 262 0102 8091 0000 		lds r24,__iob
 263 0106 9091 0000 		lds r25,__iob+1
 264 010a 0E94 0000 		call fgetc
 265               	/* epilogue start */
 266               	.LSM37:
 267 010e 0F90      		pop __tmp_reg__
 268 0110 0F90      		pop __tmp_reg__
 269 0112 0F90      		pop __tmp_reg__
 270 0114 0F90      		pop __tmp_reg__
 271 0116 0F90      		pop __tmp_reg__
 272 0118 CF91      		pop r28
 273 011a DF91      		pop r29
 274 011c 1F91      		pop r17
 275 011e 0F91      		pop r16
 276 0120 FF90      		pop r15
 277 0122 EF90      		pop r14
 278 0124 DF90      		pop r13
 279               	.LVL9:
 280 0126 CF90      		pop r12
 281               	.LVL10:
 282 0128 0895      		ret
 283               	.LFE15:
 285               		.section	.text.north_read_key_pressed,"ax",@progbits
 286               	.global	north_read_key_pressed
 288               	north_read_key_pressed:
 289               	.LFB9:
 290               	.LSM38:
 291 0000 CF92      		push r12
 292 0002 DF92      		push r13
 293 0004 EF92      		push r14
 294 0006 FF92      		push r15
 295 0008 0F93      		push r16
 296 000a 1F93      		push r17
 297 000c CF93      		push r28
 298 000e DF93      		push r29
 299               	/* prologue: function */
 300               	/* frame size = 0 */
 301               	/* stack size = 8 */
 302               	.L__stack_usage = 8
 303               	.LSM39:
 304 0010 8CE0      		ldi r24,lo8(12)
 305 0012 0E94 0000 		call south_up
 306 0016 6B01      		movw r12,r22
 307 0018 7C01      		movw r14,r24
 308               	.LVL11:
 309 001a C0E0      		ldi r28,lo8(0)
 310 001c D0E0      		ldi r29,hi8(0)
 311               	.LSM40:
 312 001e 01E0      		ldi r16,lo8(1)
 313 0020 10E0      		ldi r17,hi8(1)
 314               	.LVL12:
 315               	.L17:
 316 0022 C801      		movw r24,r16
 317 0024 0C2E      		mov r0,r28
 318 0026 00C0      		rjmp 2f
 319 0028 880F      	1:	lsl r24
 320 002a 991F      		rol r25
 321 002c 0A94      	2:	dec r0
 322 002e 02F4      		brpl 1b
 323 0030 AA27      		clr r26
 324 0032 97FD      		sbrc r25,7
 325 0034 A095      		com r26
 326 0036 BA2F      		mov r27,r26
 327 0038 8C21      		and r24,r12
 328 003a 9D21      		and r25,r13
 329 003c AE21      		and r26,r14
 330 003e BF21      		and r27,r15
 331 0040 0097      		sbiw r24,0
 332 0042 A105      		cpc r26,__zero_reg__
 333 0044 B105      		cpc r27,__zero_reg__
 334 0046 01F0      		breq .L16
 335               	.LSM41:
 336 0048 8CB1      		in r24,44-32
 337 004a 69B1      		in r22,41-32
 338 004c 6695      		lsr r22
 339 004e 6076      		andi r22,lo8(96)
 340 0050 6C2B      		or r22,r28
 341 0052 8091 0000 		lds r24,north_buffer
 342 0056 9091 0000 		lds r25,north_buffer+1
 343 005a 0E94 0000 		call bufferAddToEnd
 344               	.L16:
 345 005e 2196      		adiw r28,1
 346               	.LSM42:
 347 0060 C032      		cpi r28,32
 348 0062 D105      		cpc r29,__zero_reg__
 349 0064 01F4      		brne .L17
 350               	/* epilogue start */
 351               	.LSM43:
 352 0066 DF91      		pop r29
 353 0068 CF91      		pop r28
 354 006a 1F91      		pop r17
 355 006c 0F91      		pop r16
 356 006e FF90      		pop r15
 357 0070 EF90      		pop r14
 358 0072 DF90      		pop r13
 359 0074 CF90      		pop r12
 360               	.LVL13:
 361 0076 0895      		ret
 362               	.LFE9:
 364               		.section	.text.north_getchar,"ax",@progbits
 365               	.global	north_getchar
 367               	north_getchar:
 368               	.LFB10:
 369               	.LSM44:
 370               	/* prologue: function */
 371               	/* frame size = 0 */
 372               	/* stack size = 0 */
 373               	.L__stack_usage = 0
 374               	.L21:
 375               	.LSM45:
 376 0000 8091 0000 		lds r24,north_buffer
 377 0004 9091 0000 		lds r25,north_buffer+1
 378 0008 FC01      		movw r30,r24
 379 000a 2481      		ldd r18,Z+4
 380 000c 3581      		ldd r19,Z+5
 381 000e 2115      		cp r18,__zero_reg__
 382 0010 3105      		cpc r19,__zero_reg__
 383 0012 01F0      		breq .L20
 384               	.LSM46:
 385 0014 0E94 0000 		call bufferGetFromFront
 386               	.LSM47:
 387 0018 90E0      		ldi r25,lo8(0)
 388               	/* epilogue start */
 389 001a 0895      		ret
 390               	.L20:
 391               	.LSM48:
 392 001c 0E94 0000 		call north_read_key_pressed
 393               	.LSM49:
 394 0020 00C0      		rjmp .L21
 395               	.LFE10:
 397               		.section	.text.__vector_7,"ax",@progbits
 398               	.global	__vector_7
 400               	__vector_7:
 401               	.LFB7:
 402               	.LSM50:
 403 0000 1F92      		push __zero_reg__
 404 0002 0F92      		push r0
 405 0004 0FB6      		in r0,__SREG__
 406 0006 0F92      		push r0
 407 0008 1124      		clr __zero_reg__
 408 000a 2F93      		push r18
 409 000c 3F93      		push r19
 410 000e 4F93      		push r20
 411 0010 5F93      		push r21
 412 0012 6F93      		push r22
 413 0014 7F93      		push r23
 414 0016 8F93      		push r24
 415 0018 9F93      		push r25
 416 001a AF93      		push r26
 417 001c BF93      		push r27
 418 001e EF93      		push r30
 419 0020 FF93      		push r31
 420               	/* prologue: Signal */
 421               	/* frame size = 0 */
 422               	/* stack size = 15 */
 423               	.L__stack_usage = 15
 424               	.LSM51:
 425 0022 0E94 0000 		call north_read_key_pressed
 426               	/* epilogue start */
 427               	.LSM52:
 428 0026 FF91      		pop r31
 429 0028 EF91      		pop r30
 430 002a BF91      		pop r27
 431 002c AF91      		pop r26
 432 002e 9F91      		pop r25
 433 0030 8F91      		pop r24
 434 0032 7F91      		pop r23
 435 0034 6F91      		pop r22
 436 0036 5F91      		pop r21
 437 0038 4F91      		pop r20
 438 003a 3F91      		pop r19
 439 003c 2F91      		pop r18
 440 003e 0F90      		pop r0
 441 0040 0FBE      		out __SREG__,r0
 442 0042 0F90      		pop r0
 443 0044 1F90      		pop __zero_reg__
 444 0046 1895      		reti
 445               	.LFE7:
 447               		.section	.text.__vector_32,"ax",@progbits
 448               	.global	__vector_32
 450               	__vector_32:
 451               	.LFB8:
 452               	.LSM53:
 453 0000 1F92      		push __zero_reg__
 454 0002 0F92      		push r0
 455 0004 0FB6      		in r0,__SREG__
 456 0006 0F92      		push r0
 457 0008 1124      		clr __zero_reg__
 458 000a 8F93      		push r24
 459 000c 9F93      		push r25
 460 000e AF93      		push r26
 461 0010 BF93      		push r27
 462               	/* prologue: Signal */
 463               	/* frame size = 0 */
 464               	/* stack size = 7 */
 465               	.L__stack_usage = 7
 466               	.LSM54:
 467 0012 8091 0000 		lds r24,north_time
 468 0016 9091 0000 		lds r25,north_time+1
 469 001a A091 0000 		lds r26,north_time+2
 470 001e B091 0000 		lds r27,north_time+3
 471 0022 0196      		adiw r24,1
 472 0024 A11D      		adc r26,__zero_reg__
 473 0026 B11D      		adc r27,__zero_reg__
 474 0028 8093 0000 		sts north_time,r24
 475 002c 9093 0000 		sts north_time+1,r25
 476 0030 A093 0000 		sts north_time+2,r26
 477 0034 B093 0000 		sts north_time+3,r27
 478               	/* epilogue start */
 479               	.LSM55:
 480 0038 BF91      		pop r27
 481 003a AF91      		pop r26
 482 003c 9F91      		pop r25
 483 003e 8F91      		pop r24
 484 0040 0F90      		pop r0
 485 0042 0FBE      		out __SREG__,r0
 486 0044 0F90      		pop r0
 487 0046 1F90      		pop __zero_reg__
 488 0048 1895      		reti
 489               	.LFE8:
 491               		.section	.text.north_init,"ax",@progbits
 492               	.global	north_init
 494               	north_init:
 495               	.LFB11:
 496               	.LSM56:
 497               	/* prologue: function */
 498               	/* frame size = 0 */
 499               	/* stack size = 0 */
 500               	.L__stack_usage = 0
 501               	.LSM57:
 502 0000 80E0      		ldi r24,lo8(south_str)
 503 0002 90E0      		ldi r25,hi8(south_str)
 504 0004 9093 0000 		sts __iob+1,r25
 505 0008 8093 0000 		sts __iob,r24
 506               	.LSM58:
 507 000c 0E94 0000 		call timer3_init
 508               	.LSM59:
 509 0010 0E94 0000 		call int6_init
 510               	.LSM60:
 511 0014 0E94 0000 		call LCD_Initalize
 512               	.LSM61:
 513 0018 0E94 0000 		call south_init
 514               	/* epilogue start */
 515               	.LSM62:
 516 001c 0895      		ret
 517               	.LFE11:
 519               		.section	.text.north_test,"ax",@progbits
 520               	.global	north_test
 522               	north_test:
 523               	.LFB14:
 524               	.LSM63:
 525               	/* prologue: function */
 526               	/* frame size = 0 */
 527               	/* stack size = 0 */
 528               	.L__stack_usage = 0
 529               	.LSM64:
 530 0000 0E94 0000 		call north_test_south
 531               	/* epilogue start */
 532               	.LSM65:
 533 0004 0895      		ret
 534               	.LFE14:
 536               	.global	south_str
 537               		.data
 540               	south_str:
 541 0011 0000 00   		.skip 3,0
 542 0014 01        		.byte	1
 543 0015 0000 0000 		.skip 4,0
 544 0019 0000      		.word	0
 545 001b 0000      		.word	gs(north_getchar)
 546 001d 0000      		.word	0
 547               		.comm north_time,4,1
 548               		.comm north_buffer,2,1
 637               	.Letext0:
DEFINED SYMBOLS
                            *ABS*:0000000000000000 north.c
     /tmp/ccn79qb5.s:2      *ABS*:000000000000003f __SREG__
     /tmp/ccn79qb5.s:3      *ABS*:000000000000003e __SP_H__
     /tmp/ccn79qb5.s:4      *ABS*:000000000000003d __SP_L__
     /tmp/ccn79qb5.s:5      *ABS*:0000000000000034 __CCP__
     /tmp/ccn79qb5.s:6      *ABS*:0000000000000000 __tmp_reg__
     /tmp/ccn79qb5.s:7      *ABS*:0000000000000001 __zero_reg__
     /tmp/ccn79qb5.s:19     .text.int6_init:0000000000000000 int6_init
     /tmp/ccn79qb5.s:52     .text.timer3_init:0000000000000000 timer3_init
     /tmp/ccn79qb5.s:105    .text.north_test_south:0000000000000000 north_test_south
     /tmp/ccn79qb5.s:288    .text.north_read_key_pressed:0000000000000000 north_read_key_pressed
                            *COM*:0000000000000002 north_buffer
     /tmp/ccn79qb5.s:367    .text.north_getchar:0000000000000000 north_getchar
     /tmp/ccn79qb5.s:400    .text.__vector_7:0000000000000000 __vector_7
     /tmp/ccn79qb5.s:450    .text.__vector_32:0000000000000000 __vector_32
                            *COM*:0000000000000004 north_time
     /tmp/ccn79qb5.s:494    .text.north_init:0000000000000000 north_init
     /tmp/ccn79qb5.s:540    .data:0000000000000011 south_str
     /tmp/ccn79qb5.s:522    .text.north_test:0000000000000000 north_test

UNDEFINED SYMBOLS
south_max6959
max6959_write
LCD_GoTo
utoa
LCD_WriteText
max6959_read
__iob
fgetc
south_up
bufferAddToEnd
bufferGetFromFront
LCD_Initalize
south_init
__do_copy_data
__do_clear_bss
